Certificate:
    Data:
        Version: 1 (0x0)
        Serial Number: 3 (0x3)
    Signature Algorithm: md5WithRSAEncryption
        Issuer: C=cn, ST=shanghai, L=shanghai, O=avplayer.org, OU=Certificate Agency of avplayer.org, CN=avplayer.org community CA Root/emailAddress=ca@avplayer.org
        Validity
            Not Before: Nov  7 11:13:26 2014 GMT
            Not After : Nov  7 11:13:26 2015 GMT
        Subject: C=cn, ST=shanghai, L=shanghai, O=avplayer.org, OU=avim, CN=test-client/emailAddress=test-client@avplayer.org
        Subject Public Key Info:
            Public Key Algorithm: rsaEncryption
                Public-Key: (1024 bit)
                Modulus:
                    00:d1:15:c0:6a:5c:16:88:af:a6:cf:12:f0:29:ce:
                    3c:4b:60:de:e7:c5:c6:51:42:9d:93:72:eb:ae:78:
                    ee:70:b4:a0:a2:06:06:2d:6d:eb:8c:58:89:7c:a2:
                    4a:14:f0:18:3b:46:c2:a9:95:22:65:da:71:be:aa:
                    f0:20:b4:c1:1e:cc:5a:3f:f0:4a:20:30:7f:53:f6:
                    99:89:12:77:05:29:4a:4c:38:01:5a:b4:65:b3:34:
                    e1:09:61:9a:0d:ae:a6:e9:53:ae:80:25:b9:ee:46:
                    f0:5b:d9:34:03:61:a2:f5:f4:3d:bf:9e:d3:8e:af:
                    b8:90:4a:5d:0e:40:2a:e4:75
                Exponent: 65537 (0x10001)
    Signature Algorithm: md5WithRSAEncryption
         20:86:55:66:02:d8:c2:68:78:12:76:77:0e:e1:b2:a0:d7:77:
         97:8a:f4:95:55:36:ac:d6:d4:53:6c:ca:52:62:2b:eb:39:af:
         03:5c:09:54:ad:b5:91:3d:30:fd:9a:df:2f:e3:98:7f:62:b4:
         23:8a:4b:9e:16:8f:32:fe:c6:bb:9f:05:94:c6:df:42:ce:87:
         15:b6:85:b5:9c:8b:86:7a:c4:9b:d3:0a:56:ea:20:43:ff:37:
         35:bb:f1:f1:de:f7:da:85:38:46:1c:2f:38:53:ce:cb:e1:f0:
         07:15:00:2a:a7:1d:ea:0b:2a:48:37:7b:62:36:ba:55:06:64:
         9e:55:f4:63:af:ae:88:a3:4f:87:07:63:c0:ec:2e:5b:f7:89:
         06:ba:5a:07:4d:c4:e2:ac:08:76:02:4c:20:88:1c:25:81:8c:
         01:8d:48:2c:f7:65:f5:84:6f:b2:92:44:a3:64:4b:65:8f:5a:
         0b:d8:aa:bf:98:65:65:9b:ae:da:c5:fe:54:ab:32:b9:3d:c1:
         3b:b0:78:58:d9:93:01:17:c0:b7:3e:63:ec:18:05:2f:ed:85:
         3b:ee:9c:85:73:39:f1:a8:27:85:0e:54:a8:5e:05:91:8a:aa:
         5e:22:52:18:21:c0:28:1c:5a:9d:3c:02:22:7f:0a:34:ec:d4:
         3c:5a:7c:79:13:43:47:40:68:47:fd:e8:cf:7d:ad:46:ac:ad:
         92:fd:59:f2:8c:8f:29:a4:17:26:21:20:47:12:ff:24:e0:dd:
         56:ba:69:bf:2d:11:b2:da:7c:68:3d:0d:fb:e6:53:94:67:e3:
         71:c2:38:fc:42:b7:48:b5:2b:40:34:fb:d2:6c:c9:e7:8a:86:
         84:64:a9:42:c8:9b:2e:34:86:eb:73:1c:1c:90:7d:0d:62:73:
         50:7f:12:39:92:64:a5:16:de:ed:c2:b4:ab:32:8d:9e:cd:4c:
         f2:37:0a:7a:42:ec:1f:f6:0e:2d:41:e7:b7:8a:0d:4e:c4:23:
         6a:db:48:9f:84:35:0f:b2:f3:fa:c9:34:ef:82:88:6b:5d:4b:
         8f:65:fe:90:f6:55:af:d5:8f:49:c5:39:7d:96:a0:ba:24:ca:
         4c:05:6c:60:73:31:55:a0:5d:96:0e:72:ef:8f:76:05:5e:40:
         e6:43:64:42:b0:53:86:ca:0a:39:76:2f:79:dd:4d:0f:c9:f8:
         ac:c9:07:ed:f0:cb:e0:b3:16:b7:b4:65:a8:9c:c1:61:1d:af:
         61:bf:a1:3c:f1:08:59:8f:44:c0:2a:20:dd:b3:0f:b2:6b:5b:
         fb:ec:3d:93:4c:c2:f3:a4:5e:18:56:80:38:c5:96:9e:03:a6:
         71:3a:0f:f4:3d:51:93:42:a8:f4:12:5f:0a:a1:e5:af:27:a7:
         4d:ba:76:61:9f:33:fe:a0:8b:3a:78:24:42:79:98:c0:49:bf:
         97:a7:c2:80:58:52:76:a6:40:e7:25:af:be:08:e4:3d:15:1a:
         bc:19:8c:36:08:55:87:81:e7:0a:fb:bc:87:17:9a:e2:bb:dc:
         e2:ee:66:95:72:f1:dd:79:08:67:77:4f:60:74:a4:6c:8f:92:
         52:54:b6:f7:a5:89:8f:a9:78:80:3c:54:8f:d8:95:76:b9:94:
         4d:83:6b:9f:ac:c4:24:f8:24:c8:2d:2a:f0:59:76:52:54:4c:
         cb:55:e5:bd:76:94:04:6b:50:24:ad:ae:71:e2:e5:d9:59:62:
         8e:e0:5c:aa:8e:17:38:33:2e:a1:84:95:03:c3:59:6a:30:e0:
         79:31:a2:e6:17:f4:87:1c:fa:2a:0c:35:c2:29:42:0f:f9:bb:
         91:c7:76:1a:ea:e9:76:fc:ad:1d:cf:b5:04:e4:00:36:20:f2:
         01:68:67:c2:9b:3e:1f:9b:c9:91:70:64:9a:f4:a9:10:4b:16:
         32:de:50:a7:db:98:7f:85:16:19:51:c7:00:38:8b:d2:09:9e:
         66:09:69:95:91:10:1f:33:4c:00:e9:fd:c1:cf:1f:57:39:fa:
         bc:47:b1:2f:1f:52:8a:8a:17:40:43:c5:68:7c:6c:2e:e3:0b:
         91:4a:f5:6f:a7:f8:97:6f:d1:da:23:d9:e6:de:6d:b7:e8:3f:
         47:30:d7:b5:6d:0e:60:05:88:2f:26:63:17:2a:09:6d:fd:ad:
         0d:c0:5f:ff:d2:9a:b9:40:b2:07:85:3c:d5:7d:26:da:cc:49:
         9f:d2:a8:05:f9:1e:5e:4f:0f:da:3f:6c:3d:49:5d:41:3b:08:
         53:d4:f6:e7:58:96:0b:6e:ba:fe:50:9d:c6:05:bb:e5:74:a5:
         f7:5a:62:c4:07:e7:79:06:5c:26:bc:20:89:91:d6:fe:92:0b:
         c6:d5:69:d5:26:c5:8d:78:3c:a5:73:00:a0:1f:6a:38:be:20:
         59:aa:1b:59:f4:03:e4:58:ac:8c:ca:c0:0c:3d:33:f8:28:ea:
         85:6b:f0:b2:6e:fe:ae:08:5d:8f:b7:25:60:1f:cc:e6:d4:b5:
         14:b5:5b:b2:91:ad:b4:45:4f:30:11:0e:7c:7b:f2:f4:c3:ba:
         9e:7a:9f:27:aa:47:c4:a7:d1:59:f5:b4:ef:53:80:c1:3e:e9:
         4c:20:1a:21:90:a1:6b:a7:46:a2:f8:e5:29:75:57:54:f3:86:
         f4:9f:29:1c:e5:45:79:24:53:5c:f4:07:b7:31:68:91:cf:ca:
         43:cd:98:8f:f1:95:e3:0d:9e:fe:9a:4e:e6:ab:a9:c1
-----BEGIN CERTIFICATE-----
MIIGSjCCAjICAQMwDQYJKoZIhvcNAQEEBQAwgcAxCzAJBgNVBAYTAmNuMREwDwYD
VQQIDAhzaGFuZ2hhaTERMA8GA1UEBwwIc2hhbmdoYWkxFTATBgNVBAoMDGF2cGxh
eWVyLm9yZzErMCkGA1UECwwiQ2VydGlmaWNhdGUgQWdlbmN5IG9mIGF2cGxheWVy
Lm9yZzEnMCUGA1UEAwweYXZwbGF5ZXIub3JnIGNvbW11bml0eSBDQSBSb290MR4w
HAYJKoZIhvcNAQkBFg9jYUBhdnBsYXllci5vcmcwHhcNMTQxMTA3MTExMzI2WhcN
MTUxMTA3MTExMzI2WjCBmDELMAkGA1UEBhMCY24xETAPBgNVBAgMCHNoYW5naGFp
MREwDwYDVQQHDAhzaGFuZ2hhaTEVMBMGA1UECgwMYXZwbGF5ZXIub3JnMQ0wCwYD
VQQLDARhdmltMRQwEgYDVQQDDAt0ZXN0LWNsaWVudDEnMCUGCSqGSIb3DQEJARYY
dGVzdC1jbGllbnRAYXZwbGF5ZXIub3JnMIGfMA0GCSqGSIb3DQEBAQUAA4GNADCB
iQKBgQDRFcBqXBaIr6bPEvApzjxLYN7nxcZRQp2TcuuueO5wtKCiBgYtbeuMWIl8
okoU8Bg7RsKplSJl2nG+qvAgtMEezFo/8EogMH9T9pmJEncFKUpMOAFatGWzNOEJ
YZoNrqbpU66AJbnuRvBb2TQDYaL19D2/ntOOr7iQSl0OQCrkdQIDAQABMA0GCSqG
SIb3DQEBBAUAA4IEAQAghlVmAtjCaHgSdncO4bKg13eXivSVVTas1tRTbMpSYivr
Oa8DXAlUrbWRPTD9mt8v45h/YrQjikueFo8y/sa7nwWUxt9CzocVtoW1nIuGesSb
0wpW6iBD/zc1u/Hx3vfahThGHC84U87L4fAHFQAqpx3qCypIN3tiNrpVBmSeVfRj
r66Io0+HB2PA7C5b94kGuloHTcTirAh2AkwgiBwlgYwBjUgs92X1hG+ykkSjZEtl
j1oL2Kq/mGVlm67axf5UqzK5PcE7sHhY2ZMBF8C3PmPsGAUv7YU77pyFcznxqCeF
DlSoXgWRiqpeIlIYIcAoHFqdPAIifwo07NQ8Wnx5E0NHQGhH/ejPfa1GrK2S/Vny
jI8ppBcmISBHEv8k4N1Wumm/LRGy2nxoPQ375lOUZ+Nxwjj8QrdItStANPvSbMnn
ioaEZKlCyJsuNIbrcxwckH0NYnNQfxI5kmSlFt7twrSrMo2ezUzyNwp6Quwf9g4t
Qee3ig1OxCNq20ifhDUPsvP6yTTvgohrXUuPZf6Q9lWv1Y9JxTl9lqC6JMpMBWxg
czFVoF2WDnLvj3YFXkDmQ2RCsFOGygo5di953U0PyfisyQft8Mvgsxa3tGWonMFh
Ha9hv6E88QhZj0TAKiDdsw+ya1v77D2TTMLzpF4YVoA4xZaeA6ZxOg/0PVGTQqj0
El8KoeWvJ6dNunZhnzP+oIs6eCRCeZjASb+Xp8KAWFJ2pkDnJa++COQ9FRq8GYw2
CFWHgecK+7yHF5riu9zi7maVcvHdeQhnd09gdKRsj5JSVLb3pYmPqXiAPFSP2JV2
uZRNg2ufrMQk+CTILSrwWXZSVEzLVeW9dpQEa1Akra5x4uXZWWKO4Fyqjhc4My6h
hJUDw1lqMOB5MaLmF/SHHPoqDDXCKUIP+buRx3Ya6ul2/K0dz7UE5AA2IPIBaGfC
mz4fm8mRcGSa9KkQSxYy3lCn25h/hRYZUccAOIvSCZ5mCWmVkRAfM0wA6f3Bzx9X
Ofq8R7EvH1KKihdAQ8VofGwu4wuRSvVvp/iXb9HaI9nm3m236D9HMNe1bQ5gBYgv
JmMXKglt/a0NwF//0pq5QLIHhTzVfSbazEmf0qgF+R5eTw/aP2w9SV1BOwhT1Pbn
WJYLbrr+UJ3GBbvldKX3WmLEB+d5BlwmvCCJkdb+kgvG1WnVJsWNeDylcwCgH2o4
viBZqhtZ9APkWKyMysAMPTP4KOqFa/Cybv6uCF2PtyVgH8zm1LUUtVuyka20RU8w
EQ58e/L0w7qeep8nqkfEp9FZ9bTvU4DBPulMIBohkKFrp0ai+OUpdVdU84b0nykc
5UV5JFNc9Ae3MWiRz8pDzZiP8ZXjDZ7+mk7mq6nB
-----END CERTIFICATE-----
